; Function Attrs: nounwind uwtable
define noalias nonnull ptr @l_Lake_Log_split(ptr noundef %0, ptr noundef %1) local_unnamed_addr #1 {
  %3 = ptrtoint ptr %0 to i64
  %4 = and i64 %3, 1
  %.not = icmp eq i64 %4, 0
  br i1 %.not, label %5, label %lean_dec.exit14

5:                                                ; preds = %2
  %.val.i = load i32, ptr %0, align 4, !tbaa !4
  %6 = icmp sgt i32 %.val.i, 0
  br i1 %6, label %7, label %9, !prof !9

7:                                                ; preds = %5
  %8 = add nuw i32 %.val.i, 1
  store i32 %8, ptr %0, align 4, !tbaa !4
  br label %lean_dec.exit14

9:                                                ; preds = %5
  %.not.i17 = icmp eq i32 %.val.i, 0
  br i1 %.not.i17, label %lean_dec.exit14, label %10

10:                                               ; preds = %9
  tail call void @lean_inc_ref_cold(ptr noundef nonnull %0) #9
  br label %lean_dec.exit14

lean_dec.exit14:                                  ; preds = %2, %7, %9, %10
  %11 = tail call ptr @l_Array_shrink___rarg(ptr noundef %0, ptr noundef %1) #9
  %12 = getelementptr i8, ptr %0, i64 8
  %.val = load i64, ptr %12, align 8, !tbaa !16
  %13 = shl i64 %.val, 1
  %14 = or disjoint i64 %13, 1
  %15 = inttoptr i64 %14 to ptr
  %16 = tail call ptr @l_Array_extract___rarg(ptr noundef %0, ptr noundef %1, ptr noundef nonnull %15) #9
  br i1 %.not, label %17, label %lean_dec.exit

17:                                               ; preds = %lean_dec.exit14
  %18 = load i32, ptr %0, align 4, !tbaa !4
  %19 = icmp sgt i32 %18, 1
  br i1 %19, label %20, label %22, !prof !9

20:                                               ; preds = %17
  %21 = add nsw i32 %18, -1
  store i32 %21, ptr %0, align 4, !tbaa !4
  br label %lean_dec.exit

22:                                               ; preds = %17
  %.not.i15 = icmp eq i32 %18, 0
  br i1 %.not.i15, label %lean_dec.exit, label %23

23:                                               ; preds = %22
  tail call void @lean_dec_ref_cold(ptr noundef nonnull %0) #9
  br label %lean_dec.exit

lean_dec.exit:                                    ; preds = %23, %22, %20, %lean_dec.exit14
  tail call void @lean_inc_heartbeat() #9
  %24 = tail call noalias ptr @mi_malloc_small(i64 noundef 24) #9
  %25 = icmp eq ptr %24, null
  br i1 %25, label %26, label %lean_alloc_ctor.exit

26:                                               ; preds = %lean_dec.exit
  tail call void @lean_internal_panic_out_of_memory() #10
  unreachable

lean_alloc_ctor.exit:                             ; preds = %lean_dec.exit
  %27 = getelementptr inbounds nuw i8, ptr %24, i64 4
  store i32 1, ptr %24, align 4, !tbaa !4
  store i32 131096, ptr %27, align 4
  %28 = getelementptr inbounds nuw i8, ptr %24, i64 8
  store ptr %11, ptr %28, align 8, !tbaa !10
  %29 = getelementptr inbounds nuw i8, ptr %24, i64 16
  store ptr %16, ptr %29, align 8, !tbaa !10
  ret ptr %24
}